target datalayout = "e-m:e-p270:32:32-p271:32:32-p272:64:64-i64:64-i128:128-f80:128-n8:16:32:64-S128"
target triple = "x86_64-pc-linux-gnu"

%struct.bignum_st = type { ptr, i32, i32, i32, i32 }

@.str = private unnamed_addr constant [30 x i8] c"../openssl/crypto/bn/bn_add.c\00", align 1
@__func__.BN_usub = private unnamed_addr constant [8 x i8] c"BN_usub\00", align 1

; Function Attrs: nounwind uwtable
define i32 @BN_usub(ptr noundef %0, ptr noundef %1, ptr noundef %2) #0 {
  %4 = alloca i32, align 4
  %5 = alloca ptr, align 8
  %6 = alloca ptr, align 8
  %7 = alloca ptr, align 8
  %8 = alloca i32, align 4
  %9 = alloca i32, align 4
  %10 = alloca i32, align 4
  %11 = alloca i64, align 8
  %12 = alloca i64, align 8
  %13 = alloca i64, align 8
  %14 = alloca ptr, align 8
  %15 = alloca ptr, align 8
  %16 = alloca ptr, align 8
  %17 = alloca i32, align 4
  store ptr %0, ptr %5, align 8, !tbaa !3
  store ptr %1, ptr %6, align 8, !tbaa !3
  store ptr %2, ptr %7, align 8, !tbaa !3
  call void @llvm.lifetime.start.p0(i64 4, ptr %8) #3
  call void @llvm.lifetime.start.p0(i64 4, ptr %9) #3
  call void @llvm.lifetime.start.p0(i64 4, ptr %10) #3
  call void @llvm.lifetime.start.p0(i64 8, ptr %11) #3
  call void @llvm.lifetime.start.p0(i64 8, ptr %12) #3
  call void @llvm.lifetime.start.p0(i64 8, ptr %13) #3
  call void @llvm.lifetime.start.p0(i64 8, ptr %14) #3
  call void @llvm.lifetime.start.p0(i64 8, ptr %15) #3
  call void @llvm.lifetime.start.p0(i64 8, ptr %16) #3
  %18 = load ptr, ptr %6, align 8, !tbaa !3
  %19 = getelementptr inbounds nuw %struct.bignum_st, ptr %18, i32 0, i32 1
  %20 = load i32, ptr %19, align 8, !tbaa !13
  store i32 %20, ptr %8, align 4, !tbaa !12
  %21 = load ptr, ptr %7, align 8, !tbaa !3
  %22 = getelementptr inbounds nuw %struct.bignum_st, ptr %21, i32 0, i32 1
  %23 = load i32, ptr %22, align 8, !tbaa !13
  store i32 %23, ptr %9, align 4, !tbaa !12
  %24 = load i32, ptr %8, align 4, !tbaa !12
  %25 = load i32, ptr %9, align 4, !tbaa !12
  %26 = sub nsw i32 %24, %25
  store i32 %26, ptr %10, align 4, !tbaa !12
  %27 = load i32, ptr %10, align 4, !tbaa !12
  %28 = icmp slt i32 %27, 0
  br i1 %28, label %29, label %30

29:                                               ; preds = %3
  call void @ERR_new()
  call void @ERR_set_debug(ptr noundef @.str, i32 noundef 139, ptr noundef @__func__.BN_usub)
  call void (i32, i32, ptr, ...) @ERR_set_error(i32 noundef 3, i32 noundef 100, ptr noundef null)
  store i32 0, ptr %4, align 4
  store i32 1, ptr %17, align 4
  br label %101

30:                                               ; preds = %3
  %31 = load ptr, ptr %5, align 8, !tbaa !3
  %32 = load i32, ptr %8, align 4, !tbaa !12
  %33 = call ptr @bn_wexpand(ptr noundef %31, i32 noundef %32)
  %34 = icmp eq ptr %33, null
  br i1 %34, label %35, label %36

35:                                               ; preds = %30
  store i32 0, ptr %4, align 4
  store i32 1, ptr %17, align 4
  br label %101

36:                                               ; preds = %30
  %37 = load ptr, ptr %6, align 8, !tbaa !3
  %38 = getelementptr inbounds nuw %struct.bignum_st, ptr %37, i32 0, i32 0
  %39 = load ptr, ptr %38, align 8, !tbaa !14
  store ptr %39, ptr %15, align 8, !tbaa !15
  %40 = load ptr, ptr %7, align 8, !tbaa !3
  %41 = getelementptr inbounds nuw %struct.bignum_st, ptr %40, i32 0, i32 0
  %42 = load ptr, ptr %41, align 8, !tbaa !14
  store ptr %42, ptr %16, align 8, !tbaa !15
  %43 = load ptr, ptr %5, align 8, !tbaa !3
  %44 = getelementptr inbounds nuw %struct.bignum_st, ptr %43, i32 0, i32 0
  %45 = load ptr, ptr %44, align 8, !tbaa !14
  store ptr %45, ptr %14, align 8, !tbaa !15
  %46 = load ptr, ptr %14, align 8, !tbaa !15
  %47 = load ptr, ptr %15, align 8, !tbaa !15
  %48 = load ptr, ptr %16, align 8, !tbaa !15
  %49 = load i32, ptr %9, align 4, !tbaa !12
  %50 = call i64 @bn_sub_words(ptr noundef %46, ptr noundef %47, ptr noundef %48, i32 noundef %49)
  store i64 %50, ptr %13, align 8, !tbaa !16
  %51 = load i32, ptr %9, align 4, !tbaa !12
  %52 = load ptr, ptr %15, align 8, !tbaa !15
  %53 = sext i32 %51 to i64
  %54 = getelementptr inbounds i64, ptr %52, i64 %53
  store ptr %54, ptr %15, align 8, !tbaa !15
  %55 = load i32, ptr %9, align 4, !tbaa !12
  %56 = load ptr, ptr %14, align 8, !tbaa !15
  %57 = sext i32 %55 to i64
  %58 = getelementptr inbounds i64, ptr %56, i64 %57
  store ptr %58, ptr %14, align 8, !tbaa !15
  br label %59

59:                                               ; preds = %62, %36
  %60 = load i32, ptr %10, align 4, !tbaa !12
  %61 = icmp ne i32 %60, 0
  br i1 %61, label %62, label %81

62:                                               ; preds = %59
  %63 = load i32, ptr %10, align 4, !tbaa !12
  %64 = add nsw i32 %63, -1
  store i32 %64, ptr %10, align 4, !tbaa !12
  %65 = load ptr, ptr %15, align 8, !tbaa !15
  %66 = getelementptr inbounds nuw i64, ptr %65, i32 1
  store ptr %66, ptr %15, align 8, !tbaa !15
  %67 = load i64, ptr %65, align 8, !tbaa !16
  store i64 %67, ptr %11, align 8, !tbaa !16
  %68 = load i64, ptr %11, align 8, !tbaa !16
  %69 = load i64, ptr %13, align 8, !tbaa !16
  %70 = sub i64 %68, %69
  %71 = and i64 %70, -1
  store i64 %71, ptr %12, align 8, !tbaa !16
  %72 = load i64, ptr %12, align 8, !tbaa !16
  %73 = load ptr, ptr %14, align 8, !tbaa !15
  %74 = getelementptr inbounds nuw i64, ptr %73, i32 1
  store ptr %74, ptr %14, align 8, !tbaa !15
  store i64 %72, ptr %73, align 8, !tbaa !16
  %75 = load i64, ptr %11, align 8, !tbaa !16
  %76 = icmp eq i64 %75, 0
  %77 = zext i1 %76 to i32
  %78 = sext i32 %77 to i64
  %79 = load i64, ptr %13, align 8, !tbaa !16
  %80 = and i64 %79, %78
  store i64 %80, ptr %13, align 8, !tbaa !16
  br label %59, !llvm.loop !20

81:                                               ; preds = %59
  br label %82

82:                                               ; preds = %92, %81
  %83 = load i32, ptr %8, align 4, !tbaa !12
  %84 = icmp ne i32 %83, 0
  br i1 %84, label %85, label %90

85:                                               ; preds = %82
  %86 = load ptr, ptr %14, align 8, !tbaa !15
  %87 = getelementptr inbounds i64, ptr %86, i32 -1
  store ptr %87, ptr %14, align 8, !tbaa !15
  %88 = load i64, ptr %87, align 8, !tbaa !16
  %89 = icmp eq i64 %88, 0
  br label %90

90:                                               ; preds = %85, %82
  %91 = phi i1 [ false, %82 ], [ %89, %85 ]
  br i1 %91, label %92, label %95

92:                                               ; preds = %90
  %93 = load i32, ptr %8, align 4, !tbaa !12
  %94 = add nsw i32 %93, -1
  store i32 %94, ptr %8, align 4, !tbaa !12
  br label %82, !llvm.loop !21

95:                                               ; preds = %90
  %96 = load i32, ptr %8, align 4, !tbaa !12
  %97 = load ptr, ptr %5, align 8, !tbaa !3
  %98 = getelementptr inbounds nuw %struct.bignum_st, ptr %97, i32 0, i32 1
  store i32 %96, ptr %98, align 8, !tbaa !13
  %99 = load ptr, ptr %5, align 8, !tbaa !3
  %100 = getelementptr inbounds nuw %struct.bignum_st, ptr %99, i32 0, i32 3
  store i32 0, ptr %100, align 8, !tbaa !8
  store i32 1, ptr %4, align 4
  store i32 1, ptr %17, align 4
  br label %101

101:                                              ; preds = %95, %35, %29
  call void @llvm.lifetime.end.p0(i64 8, ptr %16) #3
  call void @llvm.lifetime.end.p0(i64 8, ptr %15) #3
  call void @llvm.lifetime.end.p0(i64 8, ptr %14) #3
  call void @llvm.lifetime.end.p0(i64 8, ptr %13) #3
  call void @llvm.lifetime.end.p0(i64 8, ptr %12) #3
  call void @llvm.lifetime.end.p0(i64 8, ptr %11) #3
  call void @llvm.lifetime.end.p0(i64 4, ptr %10) #3
  call void @llvm.lifetime.end.p0(i64 4, ptr %9) #3
  call void @llvm.lifetime.end.p0(i64 4, ptr %8) #3
  %102 = load i32, ptr %4, align 4
  ret i32 %102
}