; Function Attrs: nounwind uwtable
define range(i32 0, 2) i32 @BN_usub(ptr noundef %0, ptr noundef readonly captures(none) %1, ptr noundef readonly captures(none) %2) local_unnamed_addr #0 {
  %4 = getelementptr inbounds nuw i8, ptr %1, i64 8
  %5 = load i32, ptr %4, align 8, !tbaa !10
  %6 = getelementptr inbounds nuw i8, ptr %2, i64 8
  %7 = load i32, ptr %6, align 8, !tbaa !10
  %8 = sub nsw i32 %5, %7
  %9 = icmp slt i32 %8, 0
  br i1 %9, label %10, label %11

10:                                               ; preds = %3
  tail call void @ERR_new() #2
  tail call void @ERR_set_debug(ptr noundef nonnull @.str, i32 noundef 139, ptr noundef nonnull @__func__.BN_usub) #2
  tail call void (i32, i32, ptr, ...) @ERR_set_error(i32 noundef 3, i32 noundef 100, ptr noundef null) #2
  br label %37

11:                                               ; preds = %3
  %12 = tail call ptr @bn_wexpand(ptr noundef %0, i32 noundef %5) #2
  %13 = icmp eq ptr %12, null
  br i1 %13, label %37, label %14

14:                                               ; preds = %11
  %15 = load ptr, ptr %1, align 8, !tbaa !11
  %16 = load ptr, ptr %2, align 8, !tbaa !11
  %17 = load ptr, ptr %0, align 8, !tbaa !11
  %18 = tail call i64 @bn_sub_words(ptr noundef %17, ptr noundef %15, ptr noundef %16, i32 noundef %7) #2
  %19 = sext i32 %7 to i64
  %20 = getelementptr inbounds i64, ptr %17, i64 %19
  %.not40 = icmp eq i32 %8, 0
  br i1 %.not40, label %.preheader, label %.lr.ph.preheader

.lr.ph.preheader:                                 ; preds = %14
  %21 = getelementptr inbounds i64, ptr %15, i64 %19
  br label %.lr.ph

.preheader:                                       ; preds = %.lr.ph, %14
  %.034.lcssa = phi ptr [ %20, %14 ], [ %26, %.lr.ph ]
  %.not3945 = icmp eq i32 %5, 0
  br i1 %.not3945, label %.critedge, label %.lr.ph48

.lr.ph:                                           ; preds = %.lr.ph.preheader, %.lr.ph
  %.03344 = phi ptr [ %23, %.lr.ph ], [ %21, %.lr.ph.preheader ]
  %.03443 = phi ptr [ %26, %.lr.ph ], [ %20, %.lr.ph.preheader ]
  %.03542 = phi i64 [ %29, %.lr.ph ], [ %18, %.lr.ph.preheader ]
  %.03741 = phi i32 [ %22, %.lr.ph ], [ %8, %.lr.ph.preheader ]
  %22 = add nsw i32 %.03741, -1
  %23 = getelementptr inbounds nuw i8, ptr %.03344, i64 8
  %24 = load i64, ptr %.03344, align 8, !tbaa !12
  %25 = sub i64 %24, %.03542
  %26 = getelementptr inbounds nuw i8, ptr %.03443, i64 8
  store i64 %25, ptr %.03443, align 8, !tbaa !12
  %27 = icmp eq i64 %24, 0
  %28 = and i64 %.03542, 1
  %29 = select i1 %27, i64 %28, i64 0
  %.not = icmp eq i32 %22, 0
  br i1 %.not, label %.preheader, label %.lr.ph, !llvm.loop !16

.lr.ph48:                                         ; preds = %.preheader, %33
  %.147 = phi ptr [ %30, %33 ], [ %.034.lcssa, %.preheader ]
  %.03646 = phi i32 [ %34, %33 ], [ %5, %.preheader ]
  %30 = getelementptr inbounds i8, ptr %.147, i64 -8
  %31 = load i64, ptr %30, align 8, !tbaa !12
  %32 = icmp eq i64 %31, 0
  br i1 %32, label %33, label %.critedge

33:                                               ; preds = %.lr.ph48
  %34 = add nsw i32 %.03646, -1
  %.not39 = icmp eq i32 %34, 0
  br i1 %.not39, label %.critedge, label %.lr.ph48, !llvm.loop !17

.critedge:                                        ; preds = %.lr.ph48, %33, %.preheader
  %.036.lcssa = phi i32 [ 0, %.preheader ], [ 0, %33 ], [ %.03646, %.lr.ph48 ]
  %35 = getelementptr inbounds nuw i8, ptr %0, i64 8
  store i32 %.036.lcssa, ptr %35, align 8, !tbaa !10
  %36 = getelementptr inbounds nuw i8, ptr %0, i64 16
  store i32 0, ptr %36, align 8, !tbaa !3
  br label %37

37:                                               ; preds = %11, %.critedge, %10
  %.0 = phi i32 [ 0, %10 ], [ 1, %.critedge ], [ 0, %11 ]
  ret i32 %.0
}